#include <math.h>
#include <stdio.h>
#include <stdlib.h>
#include <string.h>

int main()
{
	int m,n,k,a,b,i,j,l,y,z,t,s;
	scanf("%d",&m);
	n=m/2;
	k=(n+1)/2;
    for(i=1;i<=k-1;i++)
	{	
		a=2*i+1;
	    b=m-a;
		t=1;
		s=1;
		for(j=2;j<=a-1;j++)
		{
			y=a%j;
            if(y==0) t*=0;
		}
		for(l=2;l<=b-1;l++)
		{
			z=b%l;
            if(z==0) s*=0;
		}
		if(t&&s)
        printf("%d %d\n",a,b);
	 }
	 return(0);
}

