; ModuleID = '43/552.c'
source_filename = "43/552.c"
target datalayout = "e-m:e-p270:32:32-p271:32:32-p272:64:64-i64:64-f80:128-n8:16:32:64-S128"
target triple = "x86_64-pc-linux-gnu"

@.str = private unnamed_addr constant [3 x i8] c"%d\00", align 1
@.str.1 = private unnamed_addr constant [7 x i8] c"%d %d\0A\00", align 1

; Function Attrs: noinline nounwind uwtable
define dso_local i32 @main() #0 {
  %1 = alloca i32, align 4
  %2 = alloca i32, align 4
  %3 = alloca i32, align 4
  %4 = alloca i32, align 4
  %5 = alloca i32, align 4
  %6 = alloca i32, align 4
  %7 = alloca i32, align 4
  %8 = alloca i32, align 4
  %9 = alloca i32, align 4
  %10 = alloca i32, align 4
  %11 = alloca i32, align 4
  %12 = alloca i32, align 4
  %13 = alloca i32, align 4
  store i32 0, i32* %1, align 4
  %14 = call i32 (i8*, ...) @__isoc99_scanf(i8* getelementptr inbounds ([3 x i8], [3 x i8]* @.str, i64 0, i64 0), i32* %2)
  %15 = load i32, i32* %2, align 4
  %16 = sdiv i32 %15, 2
  store i32 %16, i32* %3, align 4
  %17 = load i32, i32* %3, align 4
  %18 = add nsw i32 %17, 1
  %19 = sdiv i32 %18, 2
  store i32 %19, i32* %4, align 4
  store i32 1, i32* %7, align 4
  br label %20

20:                                               ; preds = %80, %0
  %21 = load i32, i32* %7, align 4
  %22 = load i32, i32* %4, align 4
  %23 = sub nsw i32 %22, 1
  %24 = icmp sle i32 %21, %23
  br i1 %24, label %25, label %83

25:                                               ; preds = %20
  %26 = load i32, i32* %7, align 4
  %27 = mul nsw i32 2, %26
  %28 = add nsw i32 %27, 1
  store i32 %28, i32* %5, align 4
  %29 = load i32, i32* %2, align 4
  %30 = load i32, i32* %5, align 4
  %31 = sub nsw i32 %29, %30
  store i32 %31, i32* %6, align 4
  store i32 1, i32* %12, align 4
  store i32 1, i32* %13, align 4
  store i32 2, i32* %8, align 4
  br label %32

32:                                               ; preds = %47, %25
  %33 = load i32, i32* %8, align 4
  %34 = load i32, i32* %5, align 4
  %35 = sub nsw i32 %34, 1
  %36 = icmp sle i32 %33, %35
  br i1 %36, label %37, label %50

37:                                               ; preds = %32
  %38 = load i32, i32* %5, align 4
  %39 = load i32, i32* %8, align 4
  %40 = srem i32 %38, %39
  store i32 %40, i32* %10, align 4
  %41 = load i32, i32* %10, align 4
  %42 = icmp eq i32 %41, 0
  br i1 %42, label %43, label %46

43:                                               ; preds = %37
  %44 = load i32, i32* %12, align 4
  %45 = mul nsw i32 %44, 0
  store i32 %45, i32* %12, align 4
  br label %46

46:                                               ; preds = %43, %37
  br label %47

47:                                               ; preds = %46
  %48 = load i32, i32* %8, align 4
  %49 = add nsw i32 %48, 1
  store i32 %49, i32* %8, align 4
  br label %32

50:                                               ; preds = %32
  store i32 2, i32* %9, align 4
  br label %51

51:                                               ; preds = %66, %50
  %52 = load i32, i32* %9, align 4
  %53 = load i32, i32* %6, align 4
  %54 = sub nsw i32 %53, 1
  %55 = icmp sle i32 %52, %54
  br i1 %55, label %56, label %69

56:                                               ; preds = %51
  %57 = load i32, i32* %6, align 4
  %58 = load i32, i32* %9, align 4
  %59 = srem i32 %57, %58
  store i32 %59, i32* %11, align 4
  %60 = load i32, i32* %11, align 4
  %61 = icmp eq i32 %60, 0
  br i1 %61, label %62, label %65

62:                                               ; preds = %56
  %63 = load i32, i32* %13, align 4
  %64 = mul nsw i32 %63, 0
  store i32 %64, i32* %13, align 4
  br label %65

65:                                               ; preds = %62, %56
  br label %66

66:                                               ; preds = %65
  %67 = load i32, i32* %9, align 4
  %68 = add nsw i32 %67, 1
  store i32 %68, i32* %9, align 4
  br label %51

69:                                               ; preds = %51
  %70 = load i32, i32* %12, align 4
  %71 = icmp ne i32 %70, 0
  br i1 %71, label %72, label %79

72:                                               ; preds = %69
  %73 = load i32, i32* %13, align 4
  %74 = icmp ne i32 %73, 0
  br i1 %74, label %75, label %79

75:                                               ; preds = %72
  %76 = load i32, i32* %5, align 4
  %77 = load i32, i32* %6, align 4
  %78 = call i32 (i8*, ...) @printf(i8* getelementptr inbounds ([7 x i8], [7 x i8]* @.str.1, i64 0, i64 0), i32 %76, i32 %77)
  br label %79

79:                                               ; preds = %75, %72, %69
  br label %80

80:                                               ; preds = %79
  %81 = load i32, i32* %7, align 4
  %82 = add nsw i32 %81, 1
  store i32 %82, i32* %7, align 4
  br label %20

83:                                               ; preds = %20
  ret i32 0
}

declare dso_local i32 @__isoc99_scanf(i8*, ...) #1

declare dso_local i32 @printf(i8*, ...) #1


!llvm.module.flags = !{!0}
!llvm.ident = !{!1}

!0 = !{i32 1, !"wchar_size", i32 4}
!1 = !{!"clang version 10.0.0-4ubuntu1 "}
